target datalayout = "e-m:e-p270:32:32-p271:32:32-p272:64:64-i64:64-i128:128-f80:128-n8:16:32:64-S128"
target triple = "x86_64-pc-linux-gnu"

%struct.ParseContext_ = type { %struct.TokenData, i32, %union.SourceSpan, %union.SourceSpan, ptr, %struct.Lexer }
%struct.TokenData = type { ptr, i64, %union.anon.86 }
%union.anon.86 = type { %struct.anon.89 }
%struct.anon.89 = type { %struct.Int128_, i8 }
%struct.Int128_ = type { i64, i64 }
%union.SourceSpan = type { i64 }
%struct.Lexer = type { ptr, ptr, ptr, ptr, i32, i32, ptr, ptr, ptr, %struct.TokenData, %union.SourceSpan, i32, i32 }
%struct.Expr_ = type { ptr, %union.SourceSpan, i16, %union.anon.30 }
%union.anon.30 = type { %struct.ExprAnySwitch }
%struct.ExprAnySwitch = type { i8, %union.anon.32 }
%union.anon.32 = type { %struct.anon.33 }
%struct.anon.33 = type { ptr, %union.SourceSpan, ptr }
%struct.VHeader_ = type { i32, i32, [0 x i8] }
%struct.Decl_ = type { ptr, ptr, %union.SourceSpan, i64, %union.anon, i32, %union.anon.1, i64, ptr, ptr, ptr, %union.anon.2 }
%union.anon = type { ptr }
%union.anon.1 = type { i16 }
%union.anon.2 = type { %struct.FuncDecl }
%struct.FuncDecl = type { i32, [4 x i8], %struct.Signature_, i32, i32, %union.anon.9 }
%struct.Signature_ = type <{ %struct.CalleeAttributes, i16, i8, i32, i32, [4 x i8], ptr }>
%struct.CalleeAttributes = type { i8 }
%union.anon.9 = type { %struct.anon.10 }
%struct.anon.10 = type { i16, %union.anon.11 }
%union.anon.11 = type { ptr }

@poisoned_expr = external global ptr, align 8
@.str.6 = private unnamed_addr constant [57 x i8] c"This looks like a declaration, which isn't allowed here.\00", align 1

; Function Attrs: nounwind uwtable
define internal ptr @vec_new_(i64 noundef %0, i64 noundef %1) #0 {
  %3 = alloca i64, align 8
  %4 = alloca i64, align 8
  %5 = alloca ptr, align 8
  store i64 %0, ptr %3, align 8
  store i64 %1, ptr %4, align 8
  %6 = load i64, ptr %3, align 8
  %7 = load i64, ptr %4, align 8
  %8 = mul i64 %6, %7
  %9 = add i64 %8, 8
  %10 = call ptr @calloc_arena(i64 noundef %9)
  store ptr %10, ptr %5, align 8
  %11 = load i64, ptr %4, align 8
  %12 = trunc i64 %11 to i32
  %13 = load ptr, ptr %5, align 8
  %14 = getelementptr inbounds %struct.VHeader_, ptr %13, i32 0, i32 1
  store i32 %12, ptr %14, align 4
  %15 = load ptr, ptr %5, align 8
  ret ptr %15
}

; Function Attrs: nounwind uwtable
define internal ptr @expand_(ptr noundef %0, i64 noundef %1) #0 {
  %3 = alloca ptr, align 8
  %4 = alloca i64, align 8
  %5 = alloca ptr, align 8
  %6 = alloca ptr, align 8
  %7 = alloca i64, align 8
  store ptr %0, ptr %3, align 8
  store i64 %1, ptr %4, align 8
  %8 = load ptr, ptr %3, align 8
  %9 = icmp ne ptr %8, null
  br i1 %9, label %13, label %10

10:                                               ; preds = %2
  %11 = load i64, ptr %4, align 8
  %12 = call ptr @vec_new_(i64 noundef %11, i64 noundef 8)
  store ptr %12, ptr %5, align 8
  br label %16

13:                                               ; preds = %2
  %14 = load ptr, ptr %3, align 8
  %15 = getelementptr inbounds %struct.VHeader_, ptr %14, i64 -1
  store ptr %15, ptr %5, align 8
  br label %16

16:                                               ; preds = %13, %10
  %17 = load ptr, ptr %5, align 8
  %18 = getelementptr inbounds %struct.VHeader_, ptr %17, i32 0, i32 0
  %19 = load i32, ptr %18, align 4
  %20 = load ptr, ptr %5, align 8
  %21 = getelementptr inbounds %struct.VHeader_, ptr %20, i32 0, i32 1
  %22 = load i32, ptr %21, align 4
  %23 = icmp eq i32 %19, %22
  br i1 %23, label %24, label %49

24:                                               ; preds = %16
  %25 = load i64, ptr %4, align 8
  %26 = load ptr, ptr %5, align 8
  %27 = getelementptr inbounds %struct.VHeader_, ptr %26, i32 0, i32 1
  %28 = load i32, ptr %27, align 4
  %29 = shl i32 %28, 1
  %30 = zext i32 %29 to i64
  %31 = call ptr @vec_new_(i64 noundef %25, i64 noundef %30)
  store ptr %31, ptr %6, align 8
  %32 = load i64, ptr %4, align 8
  %33 = load ptr, ptr %5, align 8
  %34 = getelementptr inbounds %struct.VHeader_, ptr %33, i32 0, i32 1
  %35 = load i32, ptr %34, align 4
  %36 = zext i32 %35 to i64
  %37 = mul i64 %32, %36
  %38 = add i64 %37, 8
  store i64 %38, ptr %7, align 8
  %39 = load ptr, ptr %6, align 8
  %40 = load ptr, ptr %5, align 8
  %41 = load i64, ptr %7, align 8
  call void @llvm.memcpy.p0.p0.i64(ptr align 4 %39, ptr align 4 %40, i64 %41, i1 false)
  %42 = load ptr, ptr %6, align 8
  store ptr %42, ptr %5, align 8
  %43 = load ptr, ptr %5, align 8
  %44 = getelementptr inbounds %struct.VHeader_, ptr %43, i32 0, i32 1
  %45 = load i32, ptr %44, align 4
  %46 = shl i32 %45, 1
  %47 = load ptr, ptr %6, align 8
  %48 = getelementptr inbounds %struct.VHeader_, ptr %47, i32 0, i32 1
  store i32 %46, ptr %48, align 4
  br label %49

49:                                               ; preds = %24, %16
  %50 = load ptr, ptr %5, align 8
  %51 = getelementptr inbounds %struct.VHeader_, ptr %50, i32 0, i32 0
  %52 = load i32, ptr %51, align 4
  %53 = add i32 %52, 1
  store i32 %53, ptr %51, align 4
  %54 = load ptr, ptr %5, align 8
  %55 = getelementptr inbounds %struct.VHeader_, ptr %54, i64 1
  ret ptr %55
}

; Function Attrs: nounwind uwtable
define dso_local ptr @parse_expression_list(ptr noundef %0, i1 noundef zeroext %1) #0 {
  %3 = alloca i32, align 4
  %4 = alloca ptr, align 8
  %5 = alloca ptr, align 8
  %6 = alloca ptr, align 8
  %7 = alloca ptr, align 8
  %8 = alloca ptr, align 8
  %9 = alloca i8, align 1
  %10 = alloca ptr, align 8
  %11 = alloca ptr, align 8
  %12 = alloca ptr, align 8
  %13 = alloca ptr, align 8
  %14 = alloca ptr, align 8
  store ptr %0, ptr %8, align 8
  %15 = zext i1 %1 to i8
  store i8 %15, ptr %9, align 1
  %16 = load ptr, ptr %8, align 8
  %17 = getelementptr inbounds %struct.ParseContext_, ptr %16, i32 0, i32 2
  %18 = getelementptr inbounds %union.SourceSpan, ptr %17, i32 0, i32 0
  %19 = load i64, ptr %18, align 8
  %20 = call ptr @expr_new(i32 noundef 27, i64 %19)
  store ptr %20, ptr %10, align 8
  br label %21

21:                                               ; preds = %93, %2
  %22 = load ptr, ptr %8, align 8
  %23 = call ptr @parse_decl_or_expr(ptr noundef %22, ptr noundef %11)
  store ptr %23, ptr %12, align 8
  %24 = load ptr, ptr %12, align 8
  store ptr %24, ptr %6, align 8
  %25 = load ptr, ptr %6, align 8
  %26 = icmp eq ptr %25, null
  br i1 %26, label %34, label %27

27:                                               ; preds = %21
  %28 = load ptr, ptr %6, align 8
  %29 = getelementptr inbounds %struct.Expr_, ptr %28, i32 0, i32 2
  %30 = load i16, ptr %29, align 8
  %31 = and i16 %30, 255
  %32 = zext i16 %31 to i32
  %33 = icmp ne i32 %32, 0
  br label %34

34:                                               ; preds = %27, %21
  %35 = phi i1 [ true, %21 ], [ %33, %27 ]
  br i1 %35, label %38, label %36

36:                                               ; preds = %34
  %37 = load ptr, ptr @poisoned_expr, align 8
  store ptr %37, ptr %7, align 8
  br label %96

38:                                               ; preds = %34
  %39 = load ptr, ptr %12, align 8
  store ptr %39, ptr %13, align 8
  %40 = load ptr, ptr %13, align 8
  %41 = icmp ne ptr %40, null
  br i1 %41, label %60, label %42

42:                                               ; preds = %38
  %43 = load i8, ptr %9, align 1
  %44 = trunc i8 %43 to i1
  br i1 %44, label %51, label %45

45:                                               ; preds = %42
  %46 = load ptr, ptr %8, align 8
  %47 = getelementptr inbounds %struct.ParseContext_, ptr %46, i32 0, i32 2
  %48 = getelementptr inbounds %union.SourceSpan, ptr %47, i32 0, i32 0
  %49 = load i64, ptr %48, align 8
  call void (i64, ptr, ...) @sema_error_at(i64 %49, ptr noundef @.str.6)
  %50 = load ptr, ptr @poisoned_expr, align 8
  store ptr %50, ptr %7, align 8
  br label %96

51:                                               ; preds = %42
  %52 = load ptr, ptr %11, align 8
  %53 = getelementptr inbounds %struct.Decl_, ptr %52, i32 0, i32 2
  %54 = getelementptr inbounds %union.SourceSpan, ptr %53, i32 0, i32 0
  %55 = load i64, ptr %54, align 8
  %56 = call ptr @expr_new(i32 noundef 23, i64 %55)
  store ptr %56, ptr %13, align 8
  %57 = load ptr, ptr %11, align 8
  %58 = load ptr, ptr %13, align 8
  %59 = getelementptr inbounds %struct.Expr_, ptr %58, i32 0, i32 3
  store ptr %57, ptr %59, align 8
  br label %60

60:                                               ; preds = %51, %38
  br label %61

61:                                               ; preds = %60
  %62 = load ptr, ptr %10, align 8
  %63 = getelementptr inbounds %struct.Expr_, ptr %62, i32 0, i32 3
  %64 = load ptr, ptr %63, align 8
  %65 = call ptr @expand_(ptr noundef %64, i64 noundef 8)
  store ptr %65, ptr %14, align 8
  %66 = load ptr, ptr %14, align 8
  %67 = load ptr, ptr %10, align 8
  %68 = getelementptr inbounds %struct.Expr_, ptr %67, i32 0, i32 3
  store ptr %66, ptr %68, align 8
  %69 = load ptr, ptr %13, align 8
  %70 = load ptr, ptr %10, align 8
  %71 = getelementptr inbounds %struct.Expr_, ptr %70, i32 0, i32 3
  %72 = load ptr, ptr %71, align 8
  %73 = load ptr, ptr %10, align 8
  %74 = getelementptr inbounds %struct.Expr_, ptr %73, i32 0, i32 3
  %75 = load ptr, ptr %74, align 8
  store ptr %75, ptr %4, align 8
  %76 = load ptr, ptr %4, align 8
  %77 = icmp ne ptr %76, null
  br i1 %77, label %79, label %78

78:                                               ; preds = %61
  store i32 0, ptr %3, align 4
  br label %84

79:                                               ; preds = %61
  %80 = load ptr, ptr %4, align 8
  store ptr %80, ptr %5, align 8
  %81 = load ptr, ptr %5, align 8
  %82 = getelementptr inbounds %struct.VHeader_, ptr %81, i64 -1
  %83 = load i32, ptr %82, align 4
  store i32 %83, ptr %3, align 4
  br label %84

84:                                               ; preds = %79, %78
  %85 = load i32, ptr %3, align 4
  %86 = sub i32 %85, 1
  %87 = zext i32 %86 to i64
  %88 = getelementptr inbounds ptr, ptr %72, i64 %87
  store ptr %69, ptr %88, align 8
  br label %89

89:                                               ; preds = %84
  %90 = load ptr, ptr %8, align 8
  %91 = call zeroext i1 @try_consume(ptr noundef %90, i32 noundef 8)
  br i1 %91, label %93, label %92

92:                                               ; preds = %89
  br label %94

93:                                               ; preds = %89
  br label %21

94:                                               ; preds = %92
  %95 = load ptr, ptr %10, align 8
  store ptr %95, ptr %7, align 8
  br label %96

96:                                               ; preds = %94, %45, %36
  %97 = load ptr, ptr %7, align 8
  ret ptr %97
}