; Function Attrs: nounwind uwtable
define dso_local ptr @parse_expression_list(ptr noundef %0, i1 noundef zeroext %1) local_unnamed_addr #1 {
  %3 = alloca ptr, align 8
  %4 = getelementptr inbounds i8, ptr %0, i64 48
  %5 = load i64, ptr %4, align 8
  %6 = tail call ptr @expr_new(i32 noundef 27, i64 %5) #8
  %7 = getelementptr inbounds i8, ptr %6, i64 24
  br label %8

8:                                                ; preds = %51, %2
  %9 = call ptr @parse_decl_or_expr(ptr noundef %0, ptr noundef nonnull %3) #8
  %cond = icmp eq ptr %9, null
  br i1 %cond, label %16, label %10

10:                                               ; preds = %8
  %11 = getelementptr inbounds i8, ptr %9, i64 16
  %12 = load i16, ptr %11, align 8
  %13 = and i16 %12, 255
  %.not = icmp eq i16 %13, 0
  br i1 %.not, label %14, label %.critedge

14:                                               ; preds = %10
  %15 = load ptr, ptr @poisoned_expr, align 8
  br label %.loopexit

16:                                               ; preds = %8
  br i1 %1, label %20, label %17

17:                                               ; preds = %16
  %18 = load i64, ptr %4, align 8
  call void (i64, ptr, ...) @sema_error_at(i64 %18, ptr noundef nonnull @.str.6) #8
  %19 = load ptr, ptr @poisoned_expr, align 8
  br label %.loopexit

20:                                               ; preds = %16
  %21 = load ptr, ptr %3, align 8
  %22 = getelementptr inbounds i8, ptr %21, i64 16
  %23 = load i64, ptr %22, align 8
  %24 = call ptr @expr_new(i32 noundef 23, i64 %23) #8
  %25 = load ptr, ptr %3, align 8
  %26 = getelementptr inbounds i8, ptr %24, i64 24
  store ptr %25, ptr %26, align 8
  br label %.critedge

.critedge:                                        ; preds = %10, %20
  %.022 = phi ptr [ %24, %20 ], [ %9, %10 ]
  %27 = load ptr, ptr %7, align 8
  %.not.i = icmp eq ptr %27, null
  br i1 %.not.i, label %28, label %31

28:                                               ; preds = %.critedge
  %29 = call ptr @calloc_arena(i64 noundef 72) #8
  %30 = getelementptr inbounds i8, ptr %29, i64 4
  store i32 8, ptr %30, align 4
  br label %33

31:                                               ; preds = %.critedge
  %32 = getelementptr inbounds i8, ptr %27, i64 -8
  %.phi.trans.insert.i = getelementptr inbounds i8, ptr %27, i64 -4
  %.pre.i = load i32, ptr %.phi.trans.insert.i, align 4
  br label %33

33:                                               ; preds = %31, %28
  %34 = phi i32 [ %.pre.i, %31 ], [ 8, %28 ]
  %.0.i = phi ptr [ %32, %31 ], [ %29, %28 ]
  %35 = load i32, ptr %.0.i, align 4
  %36 = icmp eq i32 %35, %34
  br i1 %36, label %37, label %51

37:                                               ; preds = %33
  %38 = getelementptr inbounds i8, ptr %.0.i, i64 4
  %39 = shl i32 %34, 1
  %40 = zext i32 %39 to i64
  %41 = shl nuw nsw i64 %40, 3
  %42 = or disjoint i64 %41, 8
  %43 = call ptr @calloc_arena(i64 noundef %42) #8
  %44 = getelementptr inbounds i8, ptr %43, i64 4
  store i32 %39, ptr %44, align 4
  %45 = load i32, ptr %38, align 4
  %46 = zext i32 %45 to i64
  %47 = shl nuw nsw i64 %46, 3
  %48 = add nuw nsw i64 %47, 8
  call void @llvm.memcpy.p0.p0.i64(ptr noundef nonnull align 4 dereferenceable(1) %43, ptr noundef nonnull align 4 dereferenceable(1) %.0.i, i64 %48, i1 false)
  %49 = load i32, ptr %44, align 4
  %50 = shl i32 %49, 1
  store i32 %50, ptr %44, align 4
  %.pre18.i = load i32, ptr %43, align 4
  br label %51

51:                                               ; preds = %33, %37
  %52 = phi i32 [ %.pre18.i, %37 ], [ %35, %33 ]
  %.1.i = phi ptr [ %43, %37 ], [ %.0.i, %33 ]
  %53 = add i32 %52, 1
  store i32 %53, ptr %.1.i, align 4
  %54 = getelementptr inbounds i8, ptr %.1.i, i64 8
  store ptr %54, ptr %7, align 8
  %55 = load i32, ptr %.1.i, align 4
  %56 = add i32 %55, -1
  %57 = zext i32 %56 to i64
  %58 = getelementptr inbounds ptr, ptr %54, i64 %57
  store ptr %.022, ptr %58, align 8
  %59 = call zeroext i1 @try_consume(ptr noundef %0, i32 noundef 8) #8
  br i1 %59, label %8, label %.loopexit

.loopexit:                                        ; preds = %51, %17, %14
  %.023 = phi ptr [ %19, %17 ], [ %15, %14 ], [ %6, %51 ]
  ret ptr %.023
}